; Function Attrs: mustprogress uwtable
define noundef ptr @_ZN6icu_7710EmojiProps12getSingletonER10UErrorCode(ptr noundef nonnull align 4 dereferenceable(4) %0) local_unnamed_addr #4 align 2 personality ptr @__gxx_personality_v0 {
  %2 = load i32, ptr %0, align 4, !tbaa !11
  %3 = icmp slt i32 %2, 1
  br i1 %3, label %4, label %55

4:                                                ; preds = %1
  %5 = load atomic i32, ptr @_ZN6icu_7712_GLOBAL__N_113emojiInitOnceE acquire, align 4
  %.not11.i = icmp eq i32 %5, 2
  br i1 %.not11.i, label %50, label %6

6:                                                ; preds = %4
  %7 = tail call noundef signext i8 @_ZN6icu_7720umtx_initImplPreInitERNS_9UInitOnceE(ptr noundef nonnull align 4 dereferenceable(8) @_ZN6icu_7712_GLOBAL__N_113emojiInitOnceE)
  %.not12.i = icmp eq i8 %7, 0
  br i1 %.not12.i, label %50, label %8

8:                                                ; preds = %6
  %9 = load i32, ptr %0, align 4, !tbaa !11
  %10 = icmp slt i32 %9, 1
  br i1 %10, label %11, label %_ZN6icu_7712_GLOBAL__N_113initSingletonER10UErrorCode.exit

11:                                               ; preds = %8
  %12 = tail call noundef ptr @_ZN6icu_777UMemorynwEm(i64 noundef 64) #10
  %13 = icmp eq ptr %12, null
  br i1 %13, label %44, label %14

14:                                               ; preds = %11
  %15 = getelementptr inbounds nuw i8, ptr %12, i64 8
  %16 = getelementptr inbounds nuw i8, ptr %12, i64 16
  tail call void @llvm.memset.p0.i64(ptr noundef nonnull align 8 dereferenceable(64) %12, i8 0, i64 64, i1 false)
  %17 = invoke ptr @udata_openChoice_77(ptr noundef null, ptr noundef nonnull @.str.1, ptr noundef nonnull @.str.2, ptr noundef nonnull @_ZN6icu_7710EmojiProps12isAcceptableEPvPKcS3_PK9UDataInfo, ptr noundef nonnull align 8 dereferenceable(64) %12, ptr noundef nonnull align 4 dereferenceable(4) %0)
          to label %.noexc.i unwind label %45

.noexc.i:                                         ; preds = %14
  store ptr %17, ptr %12, align 8, !tbaa !3
  %18 = load i32, ptr %0, align 4, !tbaa !11
  %19 = icmp slt i32 %18, 1
  br i1 %19, label %20, label %47

20:                                               ; preds = %.noexc.i
  %21 = invoke ptr @udata_getMemory_77(ptr noundef %17)
          to label %.noexc9.i unwind label %45

.noexc9.i:                                        ; preds = %20
  %22 = load i32, ptr %21, align 4, !tbaa !13
  %23 = icmp slt i32 %22, 40
  br i1 %23, label %24, label %25

24:                                               ; preds = %.noexc9.i
  store i32 3, ptr %0, align 4, !tbaa !11
  br label %47

25:                                               ; preds = %.noexc9.i
  %26 = getelementptr inbounds nuw i8, ptr %21, i64 4
  %27 = load i32, ptr %26, align 4, !tbaa !13
  %28 = zext nneg i32 %22 to i64
  %29 = getelementptr inbounds nuw i8, ptr %21, i64 %28
  %30 = sub nsw i32 %27, %22
  %31 = invoke ptr @ucptrie_openFromBinary_77(i32 noundef 0, i32 noundef 2, ptr noundef nonnull %29, i32 noundef %30, ptr noundef null, ptr noundef nonnull align 4 dereferenceable(4) %0)
          to label %.noexc10.i unwind label %45

.noexc10.i:                                       ; preds = %25
  store ptr %31, ptr %15, align 8, !tbaa !10
  %32 = load i32, ptr %0, align 4, !tbaa !11
  %33 = icmp slt i32 %32, 1
  br i1 %33, label %.preheader.i.i.i, label %47

.preheader.i.i.i:                                 ; preds = %.noexc10.i
  %.phi.trans.insert.i.i.i = getelementptr inbounds nuw i8, ptr %21, i64 16
  %.pre.i.i.i = load i32, ptr %.phi.trans.insert.i.i.i, align 4, !tbaa !13
  br label %34

34:                                               ; preds = %34, %.preheader.i.i.i
  %35 = phi i32 [ %.pre.i.i.i, %.preheader.i.i.i ], [ %37, %34 ]
  %indvars.iv.i.i.i = phi i64 [ 4, %.preheader.i.i.i ], [ %indvars.iv.next.i.i.i, %34 ]
  %indvars.iv.next.i.i.i = add nuw nsw i64 %indvars.iv.i.i.i, 1
  %36 = getelementptr inbounds nuw i32, ptr %21, i64 %indvars.iv.next.i.i.i
  %37 = load i32, ptr %36, align 4, !tbaa !13
  %38 = icmp sgt i32 %37, %35
  %39 = sext i32 %35 to i64
  %40 = getelementptr inbounds i8, ptr %21, i64 %39
  %41 = select i1 %38, ptr %40, ptr null
  %42 = add nsw i64 %indvars.iv.i.i.i, -4
  %43 = getelementptr inbounds [6 x ptr], ptr %16, i64 0, i64 %42
  store ptr %41, ptr %43, align 8, !tbaa !15
  %exitcond.not.i.i.i = icmp eq i64 %indvars.iv.next.i.i.i, 10
  br i1 %exitcond.not.i.i.i, label %.loopexit.i, label %34, !llvm.loop !17

44:                                               ; preds = %11
  store ptr null, ptr @_ZN6icu_7712_GLOBAL__N_19singletonE, align 8, !tbaa !19
  store i32 7, ptr %0, align 4, !tbaa !11
  br label %48

45:                                               ; preds = %25, %20, %14
  %46 = landingpad { ptr, i32 }
          cleanup
  tail call void @_ZN6icu_777UMemorydlEPv(ptr noundef nonnull %12) #10
  resume { ptr, i32 } %46

.loopexit.i:                                      ; preds = %34
  store ptr %12, ptr @_ZN6icu_7712_GLOBAL__N_19singletonE, align 8, !tbaa !19
  br label %48

47:                                               ; preds = %.noexc10.i, %24, %.noexc.i
  store ptr %12, ptr @_ZN6icu_7712_GLOBAL__N_19singletonE, align 8, !tbaa !19
  tail call void @_ZN6icu_7710EmojiPropsD1Ev(ptr noundef nonnull align 8 dereferenceable(64) %12) #10
  tail call void @_ZN6icu_777UMemorydlEPv(ptr noundef nonnull %12) #10
  store ptr null, ptr @_ZN6icu_7712_GLOBAL__N_19singletonE, align 8, !tbaa !19
  br label %48

48:                                               ; preds = %47, %.loopexit.i, %44
  tail call void @ucln_common_registerCleanup_77(i32 noundef 20, ptr noundef nonnull @_ZN6icu_7712_GLOBAL__N_118emojiprops_cleanupEv)
  %.pre = load i32, ptr %0, align 4, !tbaa !11
  br label %_ZN6icu_7712_GLOBAL__N_113initSingletonER10UErrorCode.exit

_ZN6icu_7712_GLOBAL__N_113initSingletonER10UErrorCode.exit: ; preds = %8, %48
  %49 = phi i32 [ %9, %8 ], [ %.pre, %48 ]
  store i32 %49, ptr getelementptr inbounds nuw (i8, ptr @_ZN6icu_7712_GLOBAL__N_113emojiInitOnceE, i64 4), align 4, !tbaa !21
  tail call void @_ZN6icu_7721umtx_initImplPostInitERNS_9UInitOnceE(ptr noundef nonnull align 4 dereferenceable(8) @_ZN6icu_7712_GLOBAL__N_113emojiInitOnceE)
  br label %_ZN6icu_7713umtx_initOnceERNS_9UInitOnceEPFvR10UErrorCodeES3_.exit

50:                                               ; preds = %6, %4
  %51 = load i32, ptr getelementptr inbounds nuw (i8, ptr @_ZN6icu_7712_GLOBAL__N_113emojiInitOnceE, i64 4), align 4, !tbaa !21
  %52 = icmp slt i32 %51, 1
  br i1 %52, label %_ZN6icu_7713umtx_initOnceERNS_9UInitOnceEPFvR10UErrorCodeES3_.exit, label %53

53:                                               ; preds = %50
  store i32 %51, ptr %0, align 4, !tbaa !11
  br label %_ZN6icu_7713umtx_initOnceERNS_9UInitOnceEPFvR10UErrorCodeES3_.exit

_ZN6icu_7713umtx_initOnceERNS_9UInitOnceEPFvR10UErrorCodeES3_.exit: ; preds = %_ZN6icu_7712_GLOBAL__N_113initSingletonER10UErrorCode.exit, %50, %53
  %54 = load ptr, ptr @_ZN6icu_7712_GLOBAL__N_19singletonE, align 8, !tbaa !19
  br label %55

55:                                               ; preds = %1, %_ZN6icu_7713umtx_initOnceERNS_9UInitOnceEPFvR10UErrorCodeES3_.exit
  %.0 = phi ptr [ %54, %_ZN6icu_7713umtx_initOnceERNS_9UInitOnceEPFvR10UErrorCodeES3_.exit ], [ null, %1 ]
  ret ptr %.0
}